; Function Attrs: mustprogress nofree norecurse nosync nounwind willreturn memory(argmem: readwrite) uwtable
define hidden void @AccelGlyphCache_AddCellInfo(ptr noundef %0, ptr noundef %1) local_unnamed_addr #4 {
  %3 = getelementptr inbounds i8, ptr %1, i64 8
  store ptr %0, ptr %3, align 8
  %4 = getelementptr inbounds i8, ptr %0, i64 24
  %5 = load ptr, ptr %4, align 8
  %6 = getelementptr inbounds i8, ptr %1, i64 24
  store ptr %5, ptr %6, align 8
  store ptr %1, ptr %4, align 8
  %7 = getelementptr inbounds i8, ptr %0, i64 14
  store i8 1, ptr %7, align 2
  ret void
}